; Function Attrs: mustprogress uwtable
define internal void @_ZN12_GLOBAL__N_114OutMessageSink7printlnERKN5vcpkg11MessageLineE(ptr nonnull readnone align 8 captures(none) %0, ptr noundef nonnull readonly align 8 captures(none) dereferenceable(24) %1) unnamed_addr #0 align 2 {
  %3 = alloca %"struct.vcpkg::StringView", align 8
  %4 = load ptr, ptr %1, align 8, !tbaa !26
  %5 = getelementptr inbounds nuw i8, ptr %1, i64 8
  %6 = load ptr, ptr %5, align 8, !tbaa !26
  %.not9 = icmp eq ptr %4, %6
  br i1 %.not9, label %._crit_edge, label %.lr.ph

.lr.ph:                                           ; preds = %2
  %7 = getelementptr inbounds nuw i8, ptr %3, i64 8
  br label %8

._crit_edge:                                      ; preds = %8, %2
  call void @_ZN5vcpkg3msg22write_unlocalized_textENS_5ColorENS_10StringViewE(i8 noundef signext 0, ptr nonnull @.str.1, i64 1)
  ret void

8:                                                ; preds = %.lr.ph, %8
  %.sroa.06.010 = phi ptr [ %4, %.lr.ph ], [ %13, %8 ]
  %9 = load i8, ptr %.sroa.06.010, align 8, !tbaa !4
  %10 = getelementptr inbounds nuw i8, ptr %.sroa.06.010, i64 8
  call void @_ZN5vcpkg10StringViewC1ERKNSt7__cxx1112basic_stringIcSt11char_traitsIcESaIcEEE(ptr noundef nonnull align 8 dereferenceable(16) %3, ptr noundef nonnull align 8 dereferenceable(32) %10) #21
  %11 = load ptr, ptr %3, align 8
  %12 = load i64, ptr %7, align 8
  call void @_ZN5vcpkg3msg22write_unlocalized_textENS_5ColorENS_10StringViewE(i8 noundef signext %9, ptr %11, i64 %12)
  %13 = getelementptr inbounds nuw i8, ptr %.sroa.06.010, i64 40
  %.not = icmp eq ptr %13, %6
  br i1 %.not, label %._crit_edge, label %8
}